target datalayout = "e-m:e-p270:32:32-p271:32:32-p272:64:64-i64:64-i128:128-f80:128-n8:16:32:64-S128"
target triple = "x86_64-pc-linux-gnu"

%struct.anon = type { i8, i8, i16 }

@.str = private unnamed_addr constant [32 x i8] c"invalid cmp function selection\0A\00", align 1

; Function Attrs: cold nounwind optsize uwtable
define i32 @ff_set_cmp(ptr noundef %0, ptr noundef %1, i32 noundef %2, i32 noundef %3) #0 {
  %5 = alloca i32, align 4
  %6 = alloca ptr, align 8
  %7 = alloca ptr, align 8
  %8 = alloca i32, align 4
  %9 = alloca i32, align 4
  %10 = alloca ptr, align 8
  %11 = alloca i32, align 4
  %12 = alloca i32, align 4
  %13 = alloca i32, align 4
  store ptr %0, ptr %6, align 8, !tbaa !4
  store ptr %1, ptr %7, align 8, !tbaa !9
  store i32 %2, ptr %8, align 4, !tbaa !11
  store i32 %3, ptr %9, align 4, !tbaa !11
  call void @llvm.lifetime.start.p0(i64 8, ptr %10) #9
  %14 = load i32, ptr %8, align 4, !tbaa !11
  %15 = and i32 %14, 255
  store i32 %15, ptr %8, align 4, !tbaa !11
  %16 = load i32, ptr %8, align 4, !tbaa !11
  %17 = icmp eq i32 %16, 7
  br i1 %17, label %18, label %32

18:                                               ; preds = %4
  call void @llvm.lifetime.start.p0(i64 4, ptr %11) #9
  store i32 0, ptr %11, align 4, !tbaa !11
  br label %19

19:                                               ; preds = %28, %18
  %20 = load i32, ptr %11, align 4, !tbaa !11
  %21 = icmp slt i32 %20, 6
  br i1 %21, label %23, label %22

22:                                               ; preds = %19
  call void @llvm.lifetime.end.p0(i64 4, ptr %11) #9
  br label %31

23:                                               ; preds = %19
  %24 = load ptr, ptr %7, align 8, !tbaa !9
  %25 = load i32, ptr %11, align 4, !tbaa !11
  %26 = sext i32 %25 to i64
  %27 = getelementptr inbounds ptr, ptr %24, i64 %26
  store ptr @zero_cmp, ptr %27, align 8, !tbaa !13
  br label %28

28:                                               ; preds = %23
  %29 = load i32, ptr %11, align 4, !tbaa !11
  %30 = add nsw i32 %29, 1
  store i32 %30, ptr %11, align 4, !tbaa !11
  br label %19, !llvm.loop !14

31:                                               ; preds = %22
  store i32 0, ptr %5, align 4
  store i32 1, ptr %12, align 4
  br label %83

32:                                               ; preds = %4
  %33 = load i32, ptr %8, align 4, !tbaa !11
  %34 = sext i32 %33 to i64
  %35 = icmp uge i64 %34, 16
  br i1 %35, label %54, label %36

36:                                               ; preds = %32
  %37 = load i32, ptr %8, align 4, !tbaa !11
  %38 = sext i32 %37 to i64
  %39 = getelementptr inbounds [16 x %struct.anon], ptr @ff_set_cmp.cmp_func_list, i64 0, i64 %38
  %40 = getelementptr inbounds nuw %struct.anon, ptr %39, i32 0, i32 0
  %41 = load i8, ptr %40, align 4, !tbaa !16
  %42 = icmp ne i8 %41, 0
  br i1 %42, label %43, label %54

43:                                               ; preds = %36
  %44 = load i32, ptr %9, align 4, !tbaa !11
  %45 = icmp ne i32 %44, 0
  br i1 %45, label %55, label %46

46:                                               ; preds = %43
  %47 = load i32, ptr %8, align 4, !tbaa !11
  %48 = sext i32 %47 to i64
  %49 = getelementptr inbounds [16 x %struct.anon], ptr @ff_set_cmp.cmp_func_list, i64 0, i64 %48
  %50 = getelementptr inbounds nuw %struct.anon, ptr %49, i32 0, i32 1
  %51 = load i8, ptr %50, align 1, !tbaa !19
  %52 = sext i8 %51 to i32
  %53 = icmp ne i32 %52, 0
  br i1 %53, label %54, label %55

54:                                               ; preds = %46, %36, %32
  call void (ptr, i32, ptr, ...) @av_log(ptr noundef null, i32 noundef 16, ptr noundef @.str)
  store i32 -22, ptr %5, align 4
  store i32 1, ptr %12, align 4
  br label %83

55:                                               ; preds = %46, %43
  %56 = load ptr, ptr %6, align 8, !tbaa !4
  %57 = load i32, ptr %8, align 4, !tbaa !11
  %58 = sext i32 %57 to i64
  %59 = getelementptr inbounds [16 x %struct.anon], ptr @ff_set_cmp.cmp_func_list, i64 0, i64 %58
  %60 = getelementptr inbounds nuw %struct.anon, ptr %59, i32 0, i32 2
  %61 = load i16, ptr %60, align 2, !tbaa !20
  %62 = zext i16 %61 to i32
  %63 = sext i32 %62 to i64
  %64 = getelementptr inbounds i8, ptr %56, i64 %63
  store ptr %64, ptr %10, align 8, !tbaa !9
  call void @llvm.lifetime.start.p0(i64 4, ptr %13) #9
  store i32 0, ptr %13, align 4, !tbaa !11
  br label %65

65:                                               ; preds = %79, %55
  %66 = load i32, ptr %13, align 4, !tbaa !11
  %67 = icmp slt i32 %66, 6
  br i1 %67, label %69, label %68

68:                                               ; preds = %65
  store i32 5, ptr %12, align 4
  call void @llvm.lifetime.end.p0(i64 4, ptr %13) #9
  br label %82

69:                                               ; preds = %65
  %70 = load ptr, ptr %10, align 8, !tbaa !9
  %71 = load i32, ptr %13, align 4, !tbaa !11
  %72 = sext i32 %71 to i64
  %73 = getelementptr inbounds ptr, ptr %70, i64 %72
  %74 = load ptr, ptr %73, align 8, !tbaa !13
  %75 = load ptr, ptr %7, align 8, !tbaa !9
  %76 = load i32, ptr %13, align 4, !tbaa !11
  %77 = sext i32 %76 to i64
  %78 = getelementptr inbounds ptr, ptr %75, i64 %77
  store ptr %74, ptr %78, align 8, !tbaa !13
  br label %79

79:                                               ; preds = %69
  %80 = load i32, ptr %13, align 4, !tbaa !11
  %81 = add nsw i32 %80, 1
  store i32 %81, ptr %13, align 4, !tbaa !11
  br label %65, !llvm.loop !21

82:                                               ; preds = %68
  store i32 0, ptr %5, align 4
  store i32 1, ptr %12, align 4
  br label %83

83:                                               ; preds = %82, %54, %31
  call void @llvm.lifetime.end.p0(i64 8, ptr %10) #9
  %84 = load i32, ptr %5, align 4
  ret i32 %84
}