; Function Attrs: cold nounwind optsize uwtable
define range(i32 -22, 1) i32 @ff_set_cmp(ptr noundef readonly captures(none) %0, ptr noundef writeonly captures(none) %1, i32 noundef %2, i32 noundef %3) local_unnamed_addr #0 {
  %5 = and i32 %2, 255
  %6 = icmp eq i32 %5, 7
  br i1 %6, label %.preheader, label %8

.preheader:                                       ; preds = %4, %.preheader
  %indvars.iv29 = phi i64 [ %indvars.iv.next30, %.preheader ], [ 0, %4 ]
  %7 = getelementptr inbounds nuw ptr, ptr %1, i64 %indvars.iv29
  store ptr @zero_cmp, ptr %7, align 8, !tbaa !4
  %indvars.iv.next30 = add nuw nsw i64 %indvars.iv29, 1
  %exitcond32.not = icmp eq i64 %indvars.iv.next30, 6
  br i1 %exitcond32.not, label %.loopexit, label %.preheader, !llvm.loop !8

8:                                                ; preds = %4
  %9 = icmp samesign ugt i32 %5, 15
  br i1 %9, label %18, label %10

10:                                               ; preds = %8
  %11 = zext nneg i32 %5 to i64
  %12 = getelementptr inbounds nuw [16 x %struct.anon], ptr @ff_set_cmp.cmp_func_list, i64 0, i64 %11
  %13 = load i8, ptr %12, align 4, !tbaa !10
  %.not = icmp eq i8 %13, 0
  br i1 %.not, label %18, label %14

14:                                               ; preds = %10
  %.not22 = icmp eq i32 %3, 0
  br i1 %.not22, label %15, label %19

15:                                               ; preds = %14
  %16 = getelementptr inbounds nuw i8, ptr %12, i64 1
  %17 = load i8, ptr %16, align 1, !tbaa !13
  %.not23 = icmp eq i8 %17, 0
  br i1 %.not23, label %19, label %18

18:                                               ; preds = %15, %10, %8
  tail call void (ptr, i32, ptr, ...) @av_log(ptr noundef null, i32 noundef 16, ptr noundef nonnull @.str) #12
  br label %.loopexit

19:                                               ; preds = %15, %14
  %20 = getelementptr inbounds nuw i8, ptr %12, i64 2
  %21 = load i16, ptr %20, align 2, !tbaa !14
  %22 = zext i16 %21 to i64
  %23 = getelementptr inbounds nuw i8, ptr %0, i64 %22
  br label %24

24:                                               ; preds = %19, %24
  %indvars.iv = phi i64 [ 0, %19 ], [ %indvars.iv.next, %24 ]
  %25 = getelementptr inbounds nuw ptr, ptr %23, i64 %indvars.iv
  %26 = load ptr, ptr %25, align 8, !tbaa !4
  %27 = getelementptr inbounds nuw ptr, ptr %1, i64 %indvars.iv
  store ptr %26, ptr %27, align 8, !tbaa !4
  %indvars.iv.next = add nuw nsw i64 %indvars.iv, 1
  %exitcond.not = icmp eq i64 %indvars.iv.next, 6
  br i1 %exitcond.not, label %.loopexit, label %24, !llvm.loop !15

.loopexit:                                        ; preds = %24, %.preheader, %18
  %.019 = phi i32 [ -22, %18 ], [ 0, %.preheader ], [ 0, %24 ]
  ret i32 %.019
}